; ModuleID = 'source-C-CXX/15/628.c'
source_filename = "source-C-CXX/15/628.c"
target datalayout = "e-m:e-p270:32:32-p271:32:32-p272:64:64-i64:64-f80:128-n8:16:32:64-S128"
target triple = "x86_64-pc-linux-gnu"

@.str = private unnamed_addr constant [3 x i8] c"%d\00", align 1
@.str.1 = private unnamed_addr constant [12 x i8] c"%d%d%d%d%d\0A\00", align 1
@.str.2 = private unnamed_addr constant [10 x i8] c"%d%d%d%d\0A\00", align 1
@.str.3 = private unnamed_addr constant [8 x i8] c"%d%d%d\0A\00", align 1
@.str.4 = private unnamed_addr constant [6 x i8] c"%d%d\0A\00", align 1
@.str.5 = private unnamed_addr constant [4 x i8] c"%d\0A\00", align 1

; Function Attrs: nofree nounwind sspstrong uwtable
define dso_local i32 @main() local_unnamed_addr #0 {
  %1 = alloca i32, align 4
  %2 = bitcast i32* %1 to i8*
  call void @llvm.lifetime.start.p0i8(i64 4, i8* nonnull %2) #3
  %3 = call i32 (i8*, ...) @__isoc99_scanf(i8* getelementptr inbounds ([3 x i8], [3 x i8]* @.str, i64 0, i64 0), i32* nonnull %1)
  %4 = load i32, i32* %1, align 4, !tbaa !5
  %5 = srem i32 %4, 10
  %6 = sub nsw i32 %4, %5
  %7 = srem i32 %6, 100
  %8 = trunc i32 %7 to i8
  %9 = sdiv i8 %8, 10
  %10 = sext i8 %9 to i32
  %11 = sub nsw i32 %6, %10
  %12 = srem i32 %11, 1000
  %13 = trunc i32 %12 to i16
  %14 = sdiv i16 %13, 100
  %15 = sext i16 %14 to i32
  %16 = sub nsw i32 %11, %15
  %17 = srem i32 %16, 10000
  %18 = trunc i32 %17 to i16
  %19 = sdiv i16 %18, 1000
  %20 = sext i16 %19 to i32
  %21 = sub nsw i32 %16, %20
  %22 = sdiv i32 %21, 10000
  %23 = add i32 %21, 9999
  %24 = icmp ult i32 %23, 19999
  br i1 %24, label %27, label %25

25:                                               ; preds = %0
  %26 = call i32 (i8*, ...) @printf(i8* nonnull dereferenceable(1) getelementptr inbounds ([12 x i8], [12 x i8]* @.str.1, i64 0, i64 0), i32 %5, i32 %10, i32 %15, i32 %20, i32 %22)
  br label %32

27:                                               ; preds = %0
  %28 = add nsw i32 %17, 999
  %29 = icmp ult i32 %28, 1999
  br i1 %29, label %32, label %30

30:                                               ; preds = %27
  %31 = call i32 (i8*, ...) @printf(i8* nonnull dereferenceable(1) getelementptr inbounds ([10 x i8], [10 x i8]* @.str.2, i64 0, i64 0), i32 %5, i32 %10, i32 %15, i32 %20)
  br label %32

32:                                               ; preds = %25, %30, %27
  %33 = add nsw i32 %22, %20
  %34 = icmp ne i32 %33, 0
  %35 = add nsw i32 %12, 99
  %36 = icmp ult i32 %35, 199
  %37 = select i1 %34, i1 true, i1 %36
  br i1 %37, label %40, label %38

38:                                               ; preds = %32
  %39 = call i32 (i8*, ...) @printf(i8* nonnull dereferenceable(1) getelementptr inbounds ([8 x i8], [8 x i8]* @.str.3, i64 0, i64 0), i32 %5, i32 %10, i32 %15)
  br label %40

40:                                               ; preds = %38, %32
  %41 = add nsw i32 %33, %15
  %42 = icmp ne i32 %41, 0
  %43 = add nsw i32 %7, 9
  %44 = icmp ult i32 %43, 19
  %45 = select i1 %42, i1 true, i1 %44
  br i1 %45, label %48, label %46

46:                                               ; preds = %40
  %47 = call i32 (i8*, ...) @printf(i8* nonnull dereferenceable(1) getelementptr inbounds ([6 x i8], [6 x i8]* @.str.4, i64 0, i64 0), i32 %5, i32 %10)
  br label %48

48:                                               ; preds = %46, %40
  %49 = sub nsw i32 0, %10
  %50 = icmp eq i32 %41, %49
  br i1 %50, label %51, label %53

51:                                               ; preds = %48
  %52 = call i32 (i8*, ...) @printf(i8* nonnull dereferenceable(1) getelementptr inbounds ([4 x i8], [4 x i8]* @.str.5, i64 0, i64 0), i32 %5)
  br label %53

53:                                               ; preds = %51, %48
  call void @llvm.lifetime.end.p0i8(i64 4, i8* nonnull %2) #3
  ret i32 0
}

; Function Attrs: argmemonly mustprogress nofree nosync nounwind willreturn
declare void @llvm.lifetime.start.p0i8(i64 immarg, i8* nocapture) #1

; Function Attrs: nofree nounwind
declare noundef i32 @__isoc99_scanf(i8* nocapture noundef readonly, ...) local_unnamed_addr #2

; Function Attrs: nofree nounwind
declare noundef i32 @printf(i8* nocapture noundef readonly, ...) local_unnamed_addr #2

; Function Attrs: argmemonly mustprogress nofree nosync nounwind willreturn
declare void @llvm.lifetime.end.p0i8(i64 immarg, i8* nocapture) #1


!llvm.module.flags = !{!0, !1, !2, !3}
!llvm.ident = !{!4}

!0 = !{i32 1, !"wchar_size", i32 4}
!1 = !{i32 7, !"PIC Level", i32 2}
!2 = !{i32 7, !"PIE Level", i32 2}
!3 = !{i32 7, !"uwtable", i32 1}
!4 = !{!"clang version 13.0.0"}
!5 = !{!6, !6, i64 0}
!6 = !{!"int", !7, i64 0}
!7 = !{!"omnipotent char", !8, i64 0}
!8 = !{!"Simple C/C++ TBAA"}
